; Function Attrs: mustprogress nounwind uwtable
define internal fastcc void @"_ZZN9grpc_core23LegacyChannelIdleFilter15MakeCallPromiseENS_8CallArgsESt8functionIFNS_12ArenaPromiseISt10unique_ptrI19grpc_metadata_batchNS_5Arena13PooledDeleterEEEES1_EEEN3$_0D2Ev"(ptr noundef nonnull align 16 dereferenceable(48) %this) unnamed_addr #4 align 2 personality ptr @__gxx_personality_v0 {
entry:
  %0 = getelementptr inbounds i8, ptr %this, i64 16
  %1 = load ptr, ptr %0, align 16
  %destroy.i = getelementptr inbounds i8, ptr %1, i64 8
  %2 = load ptr, ptr %destroy.i, align 8
  %arg.i = getelementptr inbounds i8, ptr %this, i64 32
  invoke void %2(ptr noundef nonnull %arg.i)
          to label %_ZN9grpc_core12ArenaPromiseISt10unique_ptrI19grpc_metadata_batchNS_5Arena13PooledDeleterEEED2Ev.exit unwind label %terminate.lpad.i

terminate.lpad.i:                                 ; preds = %entry
  %3 = landingpad { ptr, i32 }
          catch ptr null
  %4 = extractvalue { ptr, i32 } %3, 0
  tail call void @__clang_call_terminate(ptr %4) #25
  unreachable

_ZN9grpc_core12ArenaPromiseISt10unique_ptrI19grpc_metadata_batchNS_5Arena13PooledDeleterEEED2Ev.exit: ; preds = %entry
  %5 = load ptr, ptr %this, align 16
  %cmp.not.i = icmp eq ptr %5, null
  br i1 %cmp.not.i, label %_ZNSt10unique_ptrIN9grpc_core23LegacyChannelIdleFilterENS1_18CallCountDecreaserEED2Ev.exit, label %if.then.i

if.then.i:                                        ; preds = %_ZN9grpc_core12ArenaPromiseISt10unique_ptrI19grpc_metadata_batchNS_5Arena13PooledDeleterEEED2Ev.exit
  %idle_filter_state_.i.i.i = getelementptr inbounds i8, ptr %5, i64 40
  %6 = load ptr, ptr %idle_filter_state_.i.i.i, align 8
  %call2.i.i3.i = invoke noundef zeroext i1 @_ZN9grpc_core15IdleFilterState17DecreaseCallCountEv(ptr noundef nonnull align 8 dereferenceable(8) %6)
          to label %call2.i.i.noexc.i unwind label %terminate.lpad.i1

call2.i.i.noexc.i:                                ; preds = %if.then.i
  br i1 %call2.i.i3.i, label %if.then.i.i.i, label %_ZNSt10unique_ptrIN9grpc_core23LegacyChannelIdleFilterENS1_18CallCountDecreaserEED2Ev.exit

if.then.i.i.i:                                    ; preds = %call2.i.i.noexc.i
  invoke void @_ZN9grpc_core23LegacyChannelIdleFilter14StartIdleTimerEv(ptr noundef nonnull align 8 dereferenceable(64) %5)
          to label %_ZNSt10unique_ptrIN9grpc_core23LegacyChannelIdleFilterENS1_18CallCountDecreaserEED2Ev.exit unwind label %terminate.lpad.i1

terminate.lpad.i1:                                ; preds = %if.then.i.i.i, %if.then.i
  %7 = landingpad { ptr, i32 }
          catch ptr null
  %8 = extractvalue { ptr, i32 } %7, 0
  tail call void @__clang_call_terminate(ptr %8) #25
  unreachable

_ZNSt10unique_ptrIN9grpc_core23LegacyChannelIdleFilterENS1_18CallCountDecreaserEED2Ev.exit: ; preds = %_ZN9grpc_core12ArenaPromiseISt10unique_ptrI19grpc_metadata_batchNS_5Arena13PooledDeleterEEED2Ev.exit, %call2.i.i.noexc.i, %if.then.i.i.i
  store ptr null, ptr %this, align 16
  ret void
}